target datalayout = "e-m:e-p270:32:32-p271:32:32-p272:64:64-i64:64-i128:128-f80:128-n8:16:32:64-S128"
target triple = "x86_64-unknown-linux-gnu"

%"class.llvh::StringRef" = type { ptr, i64 }

; Function Attrs: mustprogress nounwind uwtable
define hidden { ptr, i64 } @_ZN4llvh3DOT14getColorStringEj(i32 noundef %ColorNumber) #1 {
entry:
  %this.addr.i = alloca ptr, align 8
  %Str.addr.i = alloca ptr, align 8
  %retval = alloca %"class.llvh::StringRef", align 8
  %ColorNumber.addr = alloca i32, align 4
  store i32 %ColorNumber, ptr %ColorNumber.addr, align 4
  %0 = load i32, ptr %ColorNumber.addr, align 4
  %rem = urem i32 %0, 20
  %idxprom = zext i32 %rem to i64
  %arrayidx = getelementptr inbounds [20 x ptr], ptr @_ZZN4llvh3DOT14getColorStringEjE6Colors, i64 0, i64 %idxprom
  %1 = load ptr, ptr %arrayidx, align 8
  store ptr %retval, ptr %this.addr.i, align 8
  store ptr %1, ptr %Str.addr.i, align 8
  %this1.i = load ptr, ptr %this.addr.i, align 8
  %2 = load ptr, ptr %Str.addr.i, align 8
  store ptr %2, ptr %this1.i, align 8
  %Length.i = getelementptr inbounds %"class.llvh::StringRef", ptr %this1.i, i32 0, i32 1
  %3 = load ptr, ptr %Str.addr.i, align 8
  %tobool.i = icmp ne ptr %3, null
  br i1 %tobool.i, label %cond.true.i, label %cond.false.i

cond.true.i:                                      ; preds = %entry
  %4 = load ptr, ptr %Str.addr.i, align 8
  %call.i = call i64 @strlen(ptr noundef %4) #11
  br label %_ZN4llvh9StringRefC2EPKc.exit

cond.false.i:                                     ; preds = %entry
  br label %_ZN4llvh9StringRefC2EPKc.exit

_ZN4llvh9StringRefC2EPKc.exit:                    ; preds = %cond.false.i, %cond.true.i
  %cond.i = phi i64 [ %call.i, %cond.true.i ], [ 0, %cond.false.i ]
  store i64 %cond.i, ptr %Length.i, align 8
  %5 = load { ptr, i64 }, ptr %retval, align 8
  ret { ptr, i64 } %5
}