; Function Attrs: mustprogress nofree nounwind willreturn memory(read, inaccessiblemem: none) uwtable
define hidden { ptr, i64 } @_ZN4llvh3DOT14getColorStringEj(i32 noundef %ColorNumber) local_unnamed_addr #4 {
entry:
  %rem = urem i32 %ColorNumber, 20
  %idxprom = zext nneg i32 %rem to i64
  %arrayidx = getelementptr inbounds [20 x ptr], ptr @_ZZN4llvh3DOT14getColorStringEjE6Colors, i64 0, i64 %idxprom
  %0 = load ptr, ptr %arrayidx, align 8
  %call.i = tail call i64 @strlen(ptr noundef nonnull dereferenceable(1) %0) #16
  %.fca.0.insert = insertvalue { ptr, i64 } poison, ptr %0, 0
  %.fca.1.insert = insertvalue { ptr, i64 } %.fca.0.insert, i64 %call.i, 1
  ret { ptr, i64 } %.fca.1.insert
}